; Function Attrs: mustprogress nofree norecurse nosync nounwind willreturn memory(argmem: write) uwtable
define void @_ZN6icu_776number9Precision11minFractionEi(ptr dead_on_unwind noalias writable writeonly sret(%"class.icu_77::number::FractionPrecision") align 8 captures(none) initializes((0, 4), (8, 12), (24, 28)) %0, i32 noundef %1) local_unnamed_addr #11 align 2 {
  %or.cond = icmp ult i32 %1, 1000
  br i1 %or.cond, label %3, label %6

3:                                                ; preds = %2
  %4 = trunc nuw i32 %1 to i16
  %5 = getelementptr inbounds nuw i8, ptr %0, i64 8
  store i16 %4, ptr %5, align 8, !alias.scope !38
  %.sroa.5.0..sroa_idx2.i = getelementptr inbounds nuw i8, ptr %0, i64 10
  store i16 -1, ptr %.sroa.5.0..sroa_idx2.i, align 2, !alias.scope !38
  %.sroa.6.0..sroa_idx3.i = getelementptr inbounds nuw i8, ptr %0, i64 12
  store i16 -1, ptr %.sroa.6.0..sroa_idx3.i, align 4, !alias.scope !38
  %.sroa.7.0..sroa_idx4.i = getelementptr inbounds nuw i8, ptr %0, i64 14
  store i16 -1, ptr %.sroa.7.0..sroa_idx4.i, align 2, !alias.scope !38
  %.sroa.85.0..sroa_idx.i = getelementptr inbounds nuw i8, ptr %0, i64 16
  store i64 0, ptr %.sroa.85.0..sroa_idx.i, align 8, !tbaa !17, !alias.scope !38
  br label %8

6:                                                ; preds = %2
  %7 = getelementptr inbounds nuw i8, ptr %0, i64 8
  store i32 65810, ptr %7, align 8, !tbaa !17
  br label %8

8:                                                ; preds = %6, %3
  %.sink = phi i32 [ 2, %3 ], [ 9, %6 ]
  store i32 %.sink, ptr %0, align 8, !tbaa !27
  %9 = getelementptr inbounds nuw i8, ptr %0, i64 24
  store i32 0, ptr %9, align 8, !tbaa !31
  ret void
}